target datalayout = "e-m:e-p270:32:32-p271:32:32-p272:64:64-i64:64-i128:128-f80:128-n8:16:32:64-S128"
target triple = "x86_64-pc-linux-gnu"

@.str = private unnamed_addr constant [25 x i8] c"trace_object_allocations\00", align 1
@.str.1 = private unnamed_addr constant [31 x i8] c"trace_object_allocations_start\00", align 1
@.str.2 = private unnamed_addr constant [30 x i8] c"trace_object_allocations_stop\00", align 1
@.str.3 = private unnamed_addr constant [31 x i8] c"trace_object_allocations_clear\00", align 1
@.str.4 = private unnamed_addr constant [37 x i8] c"trace_object_allocations_debug_start\00", align 1
@.str.5 = private unnamed_addr constant [22 x i8] c"allocation_sourcefile\00", align 1
@.str.6 = private unnamed_addr constant [22 x i8] c"allocation_sourceline\00", align 1
@.str.7 = private unnamed_addr constant [22 x i8] c"allocation_class_path\00", align 1
@.str.8 = private unnamed_addr constant [21 x i8] c"allocation_method_id\00", align 1
@.str.9 = private unnamed_addr constant [22 x i8] c"allocation_generation\00", align 1

; Function Attrs: nounwind sspstrong uwtable
define void @Init_object_tracing(i64 noundef %0) #0 {
  %2 = alloca i64, align 8
  store i64 %0, ptr %2, align 8, !tbaa !6
  %3 = load i64, ptr %2, align 8, !tbaa !6
  call void @rb_define_module_function(i64 noundef %3, ptr noundef @.str, ptr noundef @trace_object_allocations, i32 noundef 0)
  %4 = load i64, ptr %2, align 8, !tbaa !6
  call void @rb_define_module_function(i64 noundef %4, ptr noundef @.str.1, ptr noundef @trace_object_allocations_start, i32 noundef 0)
  %5 = load i64, ptr %2, align 8, !tbaa !6
  call void @rb_define_module_function(i64 noundef %5, ptr noundef @.str.2, ptr noundef @trace_object_allocations_stop, i32 noundef 0)
  %6 = load i64, ptr %2, align 8, !tbaa !6
  call void @rb_define_module_function(i64 noundef %6, ptr noundef @.str.3, ptr noundef @trace_object_allocations_clear, i32 noundef 0)
  %7 = load i64, ptr %2, align 8, !tbaa !6
  call void @rb_define_module_function(i64 noundef %7, ptr noundef @.str.4, ptr noundef @trace_object_allocations_debug_start, i32 noundef 0)
  %8 = load i64, ptr %2, align 8, !tbaa !6
  call void @rb_define_module_function(i64 noundef %8, ptr noundef @.str.5, ptr noundef @allocation_sourcefile, i32 noundef 1)
  %9 = load i64, ptr %2, align 8, !tbaa !6
  call void @rb_define_module_function(i64 noundef %9, ptr noundef @.str.6, ptr noundef @allocation_sourceline, i32 noundef 1)
  %10 = load i64, ptr %2, align 8, !tbaa !6
  call void @rb_define_module_function(i64 noundef %10, ptr noundef @.str.7, ptr noundef @allocation_class_path, i32 noundef 1)
  %11 = load i64, ptr %2, align 8, !tbaa !6
  call void @rb_define_module_function(i64 noundef %11, ptr noundef @.str.8, ptr noundef @allocation_method_id, i32 noundef 1)
  %12 = load i64, ptr %2, align 8, !tbaa !6
  call void @rb_define_module_function(i64 noundef %12, ptr noundef @.str.9, ptr noundef @allocation_generation, i32 noundef 1)
  ret void
}