; Function Attrs: nounwind sspstrong uwtable
define void @Init_object_tracing(i64 noundef %0) local_unnamed_addr #0 {
  tail call void @rb_define_module_function(i64 noundef %0, ptr noundef nonnull @.str, ptr noundef nonnull @trace_object_allocations, i32 noundef 0) #10
  tail call void @rb_define_module_function(i64 noundef %0, ptr noundef nonnull @.str.1, ptr noundef nonnull @trace_object_allocations_start, i32 noundef 0) #10
  tail call void @rb_define_module_function(i64 noundef %0, ptr noundef nonnull @.str.2, ptr noundef nonnull @trace_object_allocations_stop, i32 noundef 0) #10
  tail call void @rb_define_module_function(i64 noundef %0, ptr noundef nonnull @.str.3, ptr noundef nonnull @trace_object_allocations_clear, i32 noundef 0) #10
  tail call void @rb_define_module_function(i64 noundef %0, ptr noundef nonnull @.str.4, ptr noundef nonnull @trace_object_allocations_debug_start, i32 noundef 0) #10
  tail call void @rb_define_module_function(i64 noundef %0, ptr noundef nonnull @.str.5, ptr noundef nonnull @allocation_sourcefile, i32 noundef 1) #10
  tail call void @rb_define_module_function(i64 noundef %0, ptr noundef nonnull @.str.6, ptr noundef nonnull @allocation_sourceline, i32 noundef 1) #10
  tail call void @rb_define_module_function(i64 noundef %0, ptr noundef nonnull @.str.7, ptr noundef nonnull @allocation_class_path, i32 noundef 1) #10
  tail call void @rb_define_module_function(i64 noundef %0, ptr noundef nonnull @.str.8, ptr noundef nonnull @allocation_method_id, i32 noundef 1) #10
  tail call void @rb_define_module_function(i64 noundef %0, ptr noundef nonnull @.str.9, ptr noundef nonnull @allocation_generation, i32 noundef 1) #10
  ret void
}